; Function Attrs: nounwind uwtable
define internal fastcc ptr @_init_l_Lean_PrettyPrinter_Parenthesizer_leadingNode_parenthesizer___closed__1() unnamed_addr #0 {
  %1 = load ptr, ptr @l_Lean_Parser_maxPrec, align 8, !tbaa !4
  %2 = ptrtoint ptr %1 to i64
  %3 = and i64 %2, 1
  %.not = icmp eq i64 %3, 0
  br i1 %.not, label %.critedge.i, label %4, !prof !12

4:                                                ; preds = %0
  %5 = icmp ult ptr %1, inttoptr (i64 2 to ptr)
  br i1 %5, label %lean_nat_sub.exit, label %6

6:                                                ; preds = %4
  %7 = add i64 %2, -2
  %8 = inttoptr i64 %7 to ptr
  br label %lean_nat_sub.exit

.critedge.i:                                      ; preds = %0
  %9 = tail call ptr @lean_nat_big_sub(ptr noundef %1, ptr noundef nonnull inttoptr (i64 3 to ptr)) #6
  br label %lean_nat_sub.exit

lean_nat_sub.exit:                                ; preds = %4, %6, %.critedge.i
  %.1.i = phi ptr [ %9, %.critedge.i ], [ %8, %6 ], [ inttoptr (i64 1 to ptr), %4 ]
  ret ptr %.1.i
}